target datalayout = "e-m:e-p270:32:32-p271:32:32-p272:64:64-i64:64-i128:128-f80:128-n8:16:32:64-S128"
target triple = "x86_64-pc-linux-gnu"

%"struct.duckdb_libpgquery::yyguts_t" = type { ptr, ptr, ptr, i64, i64, ptr, i8, i64, i64, ptr, i32, i32, i32, i32, i32, ptr, i32, ptr, i32, i32, ptr, i32, i32, ptr, ptr }
%"struct.duckdb_libpgquery::yy_buffer_state" = type { ptr, ptr, ptr, i64, i64, i32, i32, i32, i32, i32, i32, i32 }

@.str.40 = private unnamed_addr constant [49 x i8] c"out of dynamic memory in yyensure_buffer_stack()\00", align 1

; Function Attrs: mustprogress uwtable
define hidden noundef ptr @_ZN17duckdb_libpgquery14core_yyreallocEPvmS0_(ptr noundef %0, i64 noundef %1, ptr noundef %2) #0 {
  %4 = alloca ptr, align 8
  %5 = alloca ptr, align 8
  %6 = alloca i64, align 8
  %7 = alloca ptr, align 8
  store ptr %0, ptr %5, align 8, !tbaa !10
  store i64 %1, ptr %6, align 8, !tbaa !74
  store ptr %2, ptr %7, align 8, !tbaa !10
  %8 = load ptr, ptr %5, align 8, !tbaa !10
  %9 = icmp ne ptr %8, null
  br i1 %9, label %10, label %14

10:                                               ; preds = %3
  %11 = load ptr, ptr %5, align 8, !tbaa !10
  %12 = load i64, ptr %6, align 8, !tbaa !74
  %13 = call noundef ptr @_ZN17duckdb_libpgquery8repallocEPvm(ptr noundef %11, i64 noundef %12)
  store ptr %13, ptr %4, align 8
  br label %17

14:                                               ; preds = %3
  %15 = load i64, ptr %6, align 8, !tbaa !74
  %16 = call noundef ptr @_ZN17duckdb_libpgquery6pallocEm(i64 noundef %15)
  store ptr %16, ptr %4, align 8
  br label %17

17:                                               ; preds = %14, %10
  %18 = load ptr, ptr %4, align 8
  ret ptr %18
}

; Function Attrs: mustprogress uwtable
define hidden noundef ptr @_ZN17duckdb_libpgquery12core_yyallocEmPv(i64 noundef %0, ptr noundef %1) #0 {
  %3 = alloca i64, align 8
  %4 = alloca ptr, align 8
  store i64 %0, ptr %3, align 8, !tbaa !74
  store ptr %1, ptr %4, align 8, !tbaa !10
  %5 = load i64, ptr %3, align 8, !tbaa !74
  %6 = call noundef ptr @_ZN17duckdb_libpgquery6pallocEm(i64 noundef %5)
  ret ptr %6
}

; Function Attrs: mustprogress nounwind uwtable
define internal void @_ZN17duckdb_libpgqueryL25core_yy_load_buffer_stateEPv(ptr noundef %0) #2 {
  %2 = alloca ptr, align 8
  %3 = alloca ptr, align 8
  store ptr %0, ptr %2, align 8, !tbaa !10
  call void @llvm.lifetime.start.p0(i64 8, ptr %3) #11
  %4 = load ptr, ptr %2, align 8, !tbaa !10
  store ptr %4, ptr %3, align 8, !tbaa !11
  %5 = load ptr, ptr %3, align 8, !tbaa !11
  %6 = getelementptr inbounds nuw %"struct.duckdb_libpgquery::yyguts_t", ptr %5, i32 0, i32 5
  %7 = load ptr, ptr %6, align 8, !tbaa !24
  %8 = load ptr, ptr %3, align 8, !tbaa !11
  %9 = getelementptr inbounds nuw %"struct.duckdb_libpgquery::yyguts_t", ptr %8, i32 0, i32 3
  %10 = load i64, ptr %9, align 8, !tbaa !25
  %11 = getelementptr inbounds nuw ptr, ptr %7, i64 %10
  %12 = load ptr, ptr %11, align 8, !tbaa !26
  %13 = getelementptr inbounds nuw %"struct.duckdb_libpgquery::yy_buffer_state", ptr %12, i32 0, i32 4
  %14 = load i64, ptr %13, align 8, !tbaa !68
  %15 = load ptr, ptr %3, align 8, !tbaa !11
  %16 = getelementptr inbounds nuw %"struct.duckdb_libpgquery::yyguts_t", ptr %15, i32 0, i32 7
  store i64 %14, ptr %16, align 8, !tbaa !69
  %17 = load ptr, ptr %3, align 8, !tbaa !11
  %18 = getelementptr inbounds nuw %"struct.duckdb_libpgquery::yyguts_t", ptr %17, i32 0, i32 5
  %19 = load ptr, ptr %18, align 8, !tbaa !24
  %20 = load ptr, ptr %3, align 8, !tbaa !11
  %21 = getelementptr inbounds nuw %"struct.duckdb_libpgquery::yyguts_t", ptr %20, i32 0, i32 3
  %22 = load i64, ptr %21, align 8, !tbaa !25
  %23 = getelementptr inbounds nuw ptr, ptr %19, i64 %22
  %24 = load ptr, ptr %23, align 8, !tbaa !26
  %25 = getelementptr inbounds nuw %"struct.duckdb_libpgquery::yy_buffer_state", ptr %24, i32 0, i32 2
  %26 = load ptr, ptr %25, align 8, !tbaa !79
  %27 = load ptr, ptr %3, align 8, !tbaa !11
  %28 = getelementptr inbounds nuw %"struct.duckdb_libpgquery::yyguts_t", ptr %27, i32 0, i32 9
  store ptr %26, ptr %28, align 8, !tbaa !29
  %29 = load ptr, ptr %3, align 8, !tbaa !11
  %30 = getelementptr inbounds nuw %"struct.duckdb_libpgquery::yyguts_t", ptr %29, i32 0, i32 20
  store ptr %26, ptr %30, align 8, !tbaa !41
  %31 = load ptr, ptr %3, align 8, !tbaa !11
  %32 = getelementptr inbounds nuw %"struct.duckdb_libpgquery::yyguts_t", ptr %31, i32 0, i32 5
  %33 = load ptr, ptr %32, align 8, !tbaa !24
  %34 = load ptr, ptr %3, align 8, !tbaa !11
  %35 = getelementptr inbounds nuw %"struct.duckdb_libpgquery::yyguts_t", ptr %34, i32 0, i32 3
  %36 = load i64, ptr %35, align 8, !tbaa !25
  %37 = getelementptr inbounds nuw ptr, ptr %33, i64 %36
  %38 = load ptr, ptr %37, align 8, !tbaa !26
  %39 = getelementptr inbounds nuw %"struct.duckdb_libpgquery::yy_buffer_state", ptr %38, i32 0, i32 0
  %40 = load ptr, ptr %39, align 8, !tbaa !70
  %41 = load ptr, ptr %3, align 8, !tbaa !11
  %42 = getelementptr inbounds nuw %"struct.duckdb_libpgquery::yyguts_t", ptr %41, i32 0, i32 1
  store ptr %40, ptr %42, align 8, !tbaa !28
  %43 = load ptr, ptr %3, align 8, !tbaa !11
  %44 = getelementptr inbounds nuw %"struct.duckdb_libpgquery::yyguts_t", ptr %43, i32 0, i32 9
  %45 = load ptr, ptr %44, align 8, !tbaa !29
  %46 = load i8, ptr %45, align 1, !tbaa !32
  %47 = load ptr, ptr %3, align 8, !tbaa !11
  %48 = getelementptr inbounds nuw %"struct.duckdb_libpgquery::yyguts_t", ptr %47, i32 0, i32 6
  store i8 %46, ptr %48, align 8, !tbaa !31
  call void @llvm.lifetime.end.p0(i64 8, ptr %3) #11
  ret void
}

; Function Attrs: mustprogress uwtable
define internal void @_ZN17duckdb_libpgqueryL26core_yyensure_buffer_stackEPv(ptr noundef %0) #0 {
  %2 = alloca ptr, align 8
  %3 = alloca i64, align 8
  %4 = alloca ptr, align 8
  %5 = alloca i32, align 4
  %6 = alloca i64, align 8
  store ptr %0, ptr %2, align 8, !tbaa !10
  call void @llvm.lifetime.start.p0(i64 8, ptr %3) #11
  call void @llvm.lifetime.start.p0(i64 8, ptr %4) #11
  %7 = load ptr, ptr %2, align 8, !tbaa !10
  store ptr %7, ptr %4, align 8, !tbaa !11
  %8 = load ptr, ptr %4, align 8, !tbaa !11
  %9 = getelementptr inbounds nuw %"struct.duckdb_libpgquery::yyguts_t", ptr %8, i32 0, i32 5
  %10 = load ptr, ptr %9, align 8, !tbaa !24
  %11 = icmp ne ptr %10, null
  br i1 %11, label %36, label %12

12:                                               ; preds = %1
  store i64 1, ptr %3, align 8, !tbaa !74
  %13 = load i64, ptr %3, align 8, !tbaa !74
  %14 = mul i64 %13, 8
  %15 = load ptr, ptr %2, align 8, !tbaa !10
  %16 = call noundef ptr @_ZN17duckdb_libpgquery12core_yyallocEmPv(i64 noundef %14, ptr noundef %15)
  %17 = load ptr, ptr %4, align 8, !tbaa !11
  %18 = getelementptr inbounds nuw %"struct.duckdb_libpgquery::yyguts_t", ptr %17, i32 0, i32 5
  store ptr %16, ptr %18, align 8, !tbaa !24
  %19 = load ptr, ptr %4, align 8, !tbaa !11
  %20 = getelementptr inbounds nuw %"struct.duckdb_libpgquery::yyguts_t", ptr %19, i32 0, i32 5
  %21 = load ptr, ptr %20, align 8, !tbaa !24
  %22 = icmp ne ptr %21, null
  br i1 %22, label %25, label %23

23:                                               ; preds = %12
  %24 = load ptr, ptr %2, align 8, !tbaa !10
  call void @_ZN17duckdb_libpgqueryL14yy_fatal_errorEPKcPv(ptr noundef @.str.40, ptr noundef %24) #13
  unreachable

25:                                               ; preds = %12
  %26 = load ptr, ptr %4, align 8, !tbaa !11
  %27 = getelementptr inbounds nuw %"struct.duckdb_libpgquery::yyguts_t", ptr %26, i32 0, i32 5
  %28 = load ptr, ptr %27, align 8, !tbaa !24
  %29 = load i64, ptr %3, align 8, !tbaa !74
  %30 = mul i64 %29, 8
  call void @llvm.memset.p0.i64(ptr align 8 %28, i8 0, i64 %30, i1 false)
  %31 = load i64, ptr %3, align 8, !tbaa !74
  %32 = load ptr, ptr %4, align 8, !tbaa !11
  %33 = getelementptr inbounds nuw %"struct.duckdb_libpgquery::yyguts_t", ptr %32, i32 0, i32 4
  store i64 %31, ptr %33, align 8, !tbaa !75
  %34 = load ptr, ptr %4, align 8, !tbaa !11
  %35 = getelementptr inbounds nuw %"struct.duckdb_libpgquery::yyguts_t", ptr %34, i32 0, i32 3
  store i64 0, ptr %35, align 8, !tbaa !25
  store i32 1, ptr %5, align 4
  br label %80

36:                                               ; preds = %1
  %37 = load ptr, ptr %4, align 8, !tbaa !11
  %38 = getelementptr inbounds nuw %"struct.duckdb_libpgquery::yyguts_t", ptr %37, i32 0, i32 3
  %39 = load i64, ptr %38, align 8, !tbaa !25
  %40 = load ptr, ptr %4, align 8, !tbaa !11
  %41 = getelementptr inbounds nuw %"struct.duckdb_libpgquery::yyguts_t", ptr %40, i32 0, i32 4
  %42 = load i64, ptr %41, align 8, !tbaa !75
  %43 = sub i64 %42, 1
  %44 = icmp uge i64 %39, %43
  br i1 %44, label %45, label %79

45:                                               ; preds = %36
  call void @llvm.lifetime.start.p0(i64 8, ptr %6) #11
  store i64 8, ptr %6, align 8, !tbaa !74
  %46 = load ptr, ptr %4, align 8, !tbaa !11
  %47 = getelementptr inbounds nuw %"struct.duckdb_libpgquery::yyguts_t", ptr %46, i32 0, i32 4
  %48 = load i64, ptr %47, align 8, !tbaa !75
  %49 = load i64, ptr %6, align 8, !tbaa !74
  %50 = add i64 %48, %49
  store i64 %50, ptr %3, align 8, !tbaa !74
  %51 = load ptr, ptr %4, align 8, !tbaa !11
  %52 = getelementptr inbounds nuw %"struct.duckdb_libpgquery::yyguts_t", ptr %51, i32 0, i32 5
  %53 = load ptr, ptr %52, align 8, !tbaa !24
  %54 = load i64, ptr %3, align 8, !tbaa !74
  %55 = mul i64 %54, 8
  %56 = load ptr, ptr %2, align 8, !tbaa !10
  %57 = call noundef ptr @_ZN17duckdb_libpgquery14core_yyreallocEPvmS0_(ptr noundef %53, i64 noundef %55, ptr noundef %56)
  %58 = load ptr, ptr %4, align 8, !tbaa !11
  %59 = getelementptr inbounds nuw %"struct.duckdb_libpgquery::yyguts_t", ptr %58, i32 0, i32 5
  store ptr %57, ptr %59, align 8, !tbaa !24
  %60 = load ptr, ptr %4, align 8, !tbaa !11
  %61 = getelementptr inbounds nuw %"struct.duckdb_libpgquery::yyguts_t", ptr %60, i32 0, i32 5
  %62 = load ptr, ptr %61, align 8, !tbaa !24
  %63 = icmp ne ptr %62, null
  br i1 %63, label %66, label %64

64:                                               ; preds = %45
  %65 = load ptr, ptr %2, align 8, !tbaa !10
  call void @_ZN17duckdb_libpgqueryL14yy_fatal_errorEPKcPv(ptr noundef @.str.40, ptr noundef %65) #13
  unreachable

66:                                               ; preds = %45
  %67 = load ptr, ptr %4, align 8, !tbaa !11
  %68 = getelementptr inbounds nuw %"struct.duckdb_libpgquery::yyguts_t", ptr %67, i32 0, i32 5
  %69 = load ptr, ptr %68, align 8, !tbaa !24
  %70 = load ptr, ptr %4, align 8, !tbaa !11
  %71 = getelementptr inbounds nuw %"struct.duckdb_libpgquery::yyguts_t", ptr %70, i32 0, i32 4
  %72 = load i64, ptr %71, align 8, !tbaa !75
  %73 = getelementptr inbounds nuw ptr, ptr %69, i64 %72
  %74 = load i64, ptr %6, align 8, !tbaa !74
  %75 = mul i64 %74, 8
  call void @llvm.memset.p0.i64(ptr align 8 %73, i8 0, i64 %75, i1 false)
  %76 = load i64, ptr %3, align 8, !tbaa !74
  %77 = load ptr, ptr %4, align 8, !tbaa !11
  %78 = getelementptr inbounds nuw %"struct.duckdb_libpgquery::yyguts_t", ptr %77, i32 0, i32 4
  store i64 %76, ptr %78, align 8, !tbaa !75
  call void @llvm.lifetime.end.p0(i64 8, ptr %6) #11
  br label %79

79:                                               ; preds = %66, %36
  store i32 0, ptr %5, align 4
  br label %80

80:                                               ; preds = %79, %25
  call void @llvm.lifetime.end.p0(i64 8, ptr %4) #11
  call void @llvm.lifetime.end.p0(i64 8, ptr %3) #11
  %81 = load i32, ptr %5, align 4
  switch i32 %81, label %83 [
    i32 0, label %82
    i32 1, label %82
  ]

82:                                               ; preds = %80, %80
  ret void

83:                                               ; preds = %80
  unreachable
}

; Function Attrs: mustprogress uwtable
define hidden void @_ZN17duckdb_libpgquery24core_yypush_buffer_stateEPNS_15yy_buffer_stateEPv(ptr noundef %0, ptr noundef %1) #0 {
  %3 = alloca ptr, align 8
  %4 = alloca ptr, align 8
  %5 = alloca ptr, align 8
  %6 = alloca i32, align 4
  store ptr %0, ptr %3, align 8, !tbaa !26
  store ptr %1, ptr %4, align 8, !tbaa !10
  call void @llvm.lifetime.start.p0(i64 8, ptr %5) #11
  %7 = load ptr, ptr %4, align 8, !tbaa !10
  store ptr %7, ptr %5, align 8, !tbaa !11
  %8 = load ptr, ptr %3, align 8, !tbaa !26
  %9 = icmp eq ptr %8, null
  br i1 %9, label %10, label %11

10:                                               ; preds = %2
  store i32 1, ptr %6, align 4
  br label %96

11:                                               ; preds = %2
  %12 = load ptr, ptr %4, align 8, !tbaa !10
  call void @_ZN17duckdb_libpgqueryL26core_yyensure_buffer_stackEPv(ptr noundef %12)
  %13 = load ptr, ptr %5, align 8, !tbaa !11
  %14 = getelementptr inbounds nuw %"struct.duckdb_libpgquery::yyguts_t", ptr %13, i32 0, i32 5
  %15 = load ptr, ptr %14, align 8, !tbaa !24
  %16 = icmp ne ptr %15, null
  br i1 %16, label %17, label %26

17:                                               ; preds = %11
  %18 = load ptr, ptr %5, align 8, !tbaa !11
  %19 = getelementptr inbounds nuw %"struct.duckdb_libpgquery::yyguts_t", ptr %18, i32 0, i32 5
  %20 = load ptr, ptr %19, align 8, !tbaa !24
  %21 = load ptr, ptr %5, align 8, !tbaa !11
  %22 = getelementptr inbounds nuw %"struct.duckdb_libpgquery::yyguts_t", ptr %21, i32 0, i32 3
  %23 = load i64, ptr %22, align 8, !tbaa !25
  %24 = getelementptr inbounds nuw ptr, ptr %20, i64 %23
  %25 = load ptr, ptr %24, align 8, !tbaa !26
  br label %27

26:                                               ; preds = %11
  br label %27

27:                                               ; preds = %26, %17
  %28 = phi ptr [ %25, %17 ], [ null, %26 ]
  %29 = icmp ne ptr %28, null
  br i1 %29, label %30, label %61

30:                                               ; preds = %27
  %31 = load ptr, ptr %5, align 8, !tbaa !11
  %32 = getelementptr inbounds nuw %"struct.duckdb_libpgquery::yyguts_t", ptr %31, i32 0, i32 6
  %33 = load i8, ptr %32, align 8, !tbaa !31
  %34 = load ptr, ptr %5, align 8, !tbaa !11
  %35 = getelementptr inbounds nuw %"struct.duckdb_libpgquery::yyguts_t", ptr %34, i32 0, i32 9
  %36 = load ptr, ptr %35, align 8, !tbaa !29
  store i8 %33, ptr %36, align 1, !tbaa !32
  %37 = load ptr, ptr %5, align 8, !tbaa !11
  %38 = getelementptr inbounds nuw %"struct.duckdb_libpgquery::yyguts_t", ptr %37, i32 0, i32 9
  %39 = load ptr, ptr %38, align 8, !tbaa !29
  %40 = load ptr, ptr %5, align 8, !tbaa !11
  %41 = getelementptr inbounds nuw %"struct.duckdb_libpgquery::yyguts_t", ptr %40, i32 0, i32 5
  %42 = load ptr, ptr %41, align 8, !tbaa !24
  %43 = load ptr, ptr %5, align 8, !tbaa !11
  %44 = getelementptr inbounds nuw %"struct.duckdb_libpgquery::yyguts_t", ptr %43, i32 0, i32 3
  %45 = load i64, ptr %44, align 8, !tbaa !25
  %46 = getelementptr inbounds nuw ptr, ptr %42, i64 %45
  %47 = load ptr, ptr %46, align 8, !tbaa !26
  %48 = getelementptr inbounds nuw %"struct.duckdb_libpgquery::yy_buffer_state", ptr %47, i32 0, i32 2
  store ptr %39, ptr %48, align 8, !tbaa !79
  %49 = load ptr, ptr %5, align 8, !tbaa !11
  %50 = getelementptr inbounds nuw %"struct.duckdb_libpgquery::yyguts_t", ptr %49, i32 0, i32 7
  %51 = load i64, ptr %50, align 8, !tbaa !69
  %52 = load ptr, ptr %5, align 8, !tbaa !11
  %53 = getelementptr inbounds nuw %"struct.duckdb_libpgquery::yyguts_t", ptr %52, i32 0, i32 5
  %54 = load ptr, ptr %53, align 8, !tbaa !24
  %55 = load ptr, ptr %5, align 8, !tbaa !11
  %56 = getelementptr inbounds nuw %"struct.duckdb_libpgquery::yyguts_t", ptr %55, i32 0, i32 3
  %57 = load i64, ptr %56, align 8, !tbaa !25
  %58 = getelementptr inbounds nuw ptr, ptr %54, i64 %57
  %59 = load ptr, ptr %58, align 8, !tbaa !26
  %60 = getelementptr inbounds nuw %"struct.duckdb_libpgquery::yy_buffer_state", ptr %59, i32 0, i32 4
  store i64 %51, ptr %60, align 8, !tbaa !68
  br label %61

61:                                               ; preds = %30, %27
  %62 = load ptr, ptr %5, align 8, !tbaa !11
  %63 = getelementptr inbounds nuw %"struct.duckdb_libpgquery::yyguts_t", ptr %62, i32 0, i32 5
  %64 = load ptr, ptr %63, align 8, !tbaa !24
  %65 = icmp ne ptr %64, null
  br i1 %65, label %66, label %75

66:                                               ; preds = %61
  %67 = load ptr, ptr %5, align 8, !tbaa !11
  %68 = getelementptr inbounds nuw %"struct.duckdb_libpgquery::yyguts_t", ptr %67, i32 0, i32 5
  %69 = load ptr, ptr %68, align 8, !tbaa !24
  %70 = load ptr, ptr %5, align 8, !tbaa !11
  %71 = getelementptr inbounds nuw %"struct.duckdb_libpgquery::yyguts_t", ptr %70, i32 0, i32 3
  %72 = load i64, ptr %71, align 8, !tbaa !25
  %73 = getelementptr inbounds nuw ptr, ptr %69, i64 %72
  %74 = load ptr, ptr %73, align 8, !tbaa !26
  br label %76

75:                                               ; preds = %61
  br label %76

76:                                               ; preds = %75, %66
  %77 = phi ptr [ %74, %66 ], [ null, %75 ]
  %78 = icmp ne ptr %77, null
  br i1 %78, label %79, label %84

79:                                               ; preds = %76
  %80 = load ptr, ptr %5, align 8, !tbaa !11
  %81 = getelementptr inbounds nuw %"struct.duckdb_libpgquery::yyguts_t", ptr %80, i32 0, i32 3
  %82 = load i64, ptr %81, align 8, !tbaa !25
  %83 = add i64 %82, 1
  store i64 %83, ptr %81, align 8, !tbaa !25
  br label %84

84:                                               ; preds = %79, %76
  %85 = load ptr, ptr %3, align 8, !tbaa !26
  %86 = load ptr, ptr %5, align 8, !tbaa !11
  %87 = getelementptr inbounds nuw %"struct.duckdb_libpgquery::yyguts_t", ptr %86, i32 0, i32 5
  %88 = load ptr, ptr %87, align 8, !tbaa !24
  %89 = load ptr, ptr %5, align 8, !tbaa !11
  %90 = getelementptr inbounds nuw %"struct.duckdb_libpgquery::yyguts_t", ptr %89, i32 0, i32 3
  %91 = load i64, ptr %90, align 8, !tbaa !25
  %92 = getelementptr inbounds nuw ptr, ptr %88, i64 %91
  store ptr %85, ptr %92, align 8, !tbaa !26
  %93 = load ptr, ptr %4, align 8, !tbaa !10
  call void @_ZN17duckdb_libpgqueryL25core_yy_load_buffer_stateEPv(ptr noundef %93)
  %94 = load ptr, ptr %5, align 8, !tbaa !11
  %95 = getelementptr inbounds nuw %"struct.duckdb_libpgquery::yyguts_t", ptr %94, i32 0, i32 12
  store i32 1, ptr %95, align 8, !tbaa !72
  store i32 0, ptr %6, align 4
  br label %96

96:                                               ; preds = %84, %10
  call void @llvm.lifetime.end.p0(i64 8, ptr %5) #11
  %97 = load i32, ptr %6, align 4
  switch i32 %97, label %99 [
    i32 0, label %98
    i32 1, label %98
  ]

98:                                               ; preds = %96, %96
  ret void

99:                                               ; preds = %96
  unreachable
}