; Function Attrs: mustprogress uwtable
define hidden void @_ZN17duckdb_libpgquery24core_yypush_buffer_stateEPNS_15yy_buffer_stateEPv(ptr noundef %0, ptr noundef captures(none) %1) local_unnamed_addr #0 {
  %3 = icmp eq ptr %0, null
  br i1 %3, label %61, label %4

4:                                                ; preds = %2
  %5 = getelementptr inbounds nuw i8, ptr %1, i64 40
  %6 = load ptr, ptr %5, align 8, !tbaa !19
  %.not.i = icmp eq ptr %6, null
  br i1 %.not.i, label %7, label %13

7:                                                ; preds = %4
  %8 = tail call noundef ptr @_ZN17duckdb_libpgquery6pallocEm(i64 noundef 8)
  store ptr %8, ptr %5, align 8, !tbaa !19
  %.not28.i = icmp eq ptr %8, null
  br i1 %.not28.i, label %9, label %10

9:                                                ; preds = %7
  tail call fastcc void @_ZN17duckdb_libpgqueryL14yy_fatal_errorEPKcPv(ptr noundef nonnull @.str.40) #20
  unreachable

10:                                               ; preds = %7
  store i64 0, ptr %8, align 8
  %11 = getelementptr inbounds nuw i8, ptr %1, i64 32
  store i64 1, ptr %11, align 8, !tbaa !23
  %12 = getelementptr inbounds nuw i8, ptr %1, i64 24
  store i64 0, ptr %12, align 8, !tbaa !20
  br label %_ZN17duckdb_libpgqueryL26core_yyensure_buffer_stackEPv.exit

13:                                               ; preds = %4
  %14 = getelementptr inbounds nuw i8, ptr %1, i64 24
  %15 = load i64, ptr %14, align 8, !tbaa !20
  %16 = getelementptr inbounds nuw i8, ptr %1, i64 32
  %17 = load i64, ptr %16, align 8, !tbaa !23
  %18 = add i64 %17, -1
  %.not29.i = icmp ult i64 %15, %18
  br i1 %.not29.i, label %_ZN17duckdb_libpgqueryL26core_yyensure_buffer_stackEPv.exit, label %_ZN17duckdb_libpgquery14core_yyreallocEPvmS0_.exit.i

_ZN17duckdb_libpgquery14core_yyreallocEPvmS0_.exit.i: ; preds = %13
  %19 = add i64 %17, 8
  %20 = shl i64 %19, 3
  %21 = tail call noundef ptr @_ZN17duckdb_libpgquery8repallocEPvm(ptr noundef nonnull %6, i64 noundef %20)
  store ptr %21, ptr %5, align 8, !tbaa !19
  %.not30.i = icmp eq ptr %21, null
  br i1 %.not30.i, label %22, label %23

22:                                               ; preds = %_ZN17duckdb_libpgquery14core_yyreallocEPvmS0_.exit.i
  tail call fastcc void @_ZN17duckdb_libpgqueryL14yy_fatal_errorEPKcPv(ptr noundef nonnull @.str.40) #20
  unreachable

23:                                               ; preds = %_ZN17duckdb_libpgquery14core_yyreallocEPvmS0_.exit.i
  %24 = load i64, ptr %16, align 8, !tbaa !23
  %25 = getelementptr inbounds nuw ptr, ptr %21, i64 %24
  tail call void @llvm.memset.p0.i64(ptr noundef nonnull align 8 dereferenceable(64) %25, i8 0, i64 64, i1 false)
  store i64 %19, ptr %16, align 8, !tbaa !23
  %.pre = load i64, ptr %14, align 8, !tbaa !20
  br label %_ZN17duckdb_libpgqueryL26core_yyensure_buffer_stackEPv.exit

_ZN17duckdb_libpgqueryL26core_yyensure_buffer_stackEPv.exit: ; preds = %10, %13, %23
  %26 = phi i64 [ 0, %10 ], [ %15, %13 ], [ %.pre, %23 ]
  %27 = load ptr, ptr %5, align 8, !tbaa !19, !nonnull !63, !noundef !63
  %28 = getelementptr inbounds nuw ptr, ptr %27, i64 %26
  %29 = load ptr, ptr %28, align 8, !tbaa !21
  %30 = icmp eq ptr %29, null
  br i1 %30, label %.critedge29, label %31

31:                                               ; preds = %_ZN17duckdb_libpgqueryL26core_yyensure_buffer_stackEPv.exit
  %32 = getelementptr inbounds nuw i8, ptr %1, i64 24
  %33 = getelementptr inbounds nuw i8, ptr %1, i64 48
  %34 = load i8, ptr %33, align 8, !tbaa !33
  %35 = getelementptr inbounds nuw i8, ptr %1, i64 72
  %36 = load ptr, ptr %35, align 8, !tbaa !29
  store i8 %34, ptr %36, align 1, !tbaa !32
  %37 = load ptr, ptr %35, align 8, !tbaa !29
  %38 = load ptr, ptr %5, align 8, !tbaa !19
  %39 = load i64, ptr %32, align 8, !tbaa !20
  %40 = getelementptr inbounds nuw ptr, ptr %38, i64 %39
  %41 = load ptr, ptr %40, align 8, !tbaa !21
  %42 = getelementptr inbounds nuw i8, ptr %41, i64 16
  store ptr %37, ptr %42, align 8, !tbaa !28
  %43 = getelementptr inbounds nuw i8, ptr %1, i64 56
  %44 = load i64, ptr %43, align 8, !tbaa !27
  %45 = getelementptr inbounds nuw i8, ptr %41, i64 32
  store i64 %44, ptr %45, align 8, !tbaa !25
  %46 = add i64 %39, 1
  store i64 %46, ptr %32, align 8, !tbaa !20
  br label %.critedge29

.critedge29:                                      ; preds = %_ZN17duckdb_libpgqueryL26core_yyensure_buffer_stackEPv.exit, %31
  %.pr33 = phi ptr [ %38, %31 ], [ %27, %_ZN17duckdb_libpgqueryL26core_yyensure_buffer_stackEPv.exit ]
  %47 = phi i64 [ %46, %31 ], [ %26, %_ZN17duckdb_libpgqueryL26core_yyensure_buffer_stackEPv.exit ]
  %48 = getelementptr inbounds nuw ptr, ptr %.pr33, i64 %47
  store ptr %0, ptr %48, align 8, !tbaa !21
  %49 = getelementptr inbounds nuw i8, ptr %0, i64 32
  %50 = load i64, ptr %49, align 8, !tbaa !25
  %51 = getelementptr inbounds nuw i8, ptr %1, i64 56
  store i64 %50, ptr %51, align 8, !tbaa !27
  %52 = getelementptr inbounds nuw i8, ptr %0, i64 16
  %53 = load ptr, ptr %52, align 8, !tbaa !28
  %54 = getelementptr inbounds nuw i8, ptr %1, i64 72
  store ptr %53, ptr %54, align 8, !tbaa !29
  %55 = getelementptr inbounds nuw i8, ptr %1, i64 136
  store ptr %53, ptr %55, align 8, !tbaa !30
  %56 = load ptr, ptr %0, align 8, !tbaa !31
  %57 = getelementptr inbounds nuw i8, ptr %1, i64 8
  store ptr %56, ptr %57, align 8, !tbaa !24
  %58 = load i8, ptr %53, align 1, !tbaa !32
  %59 = getelementptr inbounds nuw i8, ptr %1, i64 48
  store i8 %58, ptr %59, align 8, !tbaa !33
  %60 = getelementptr inbounds nuw i8, ptr %1, i64 88
  store i32 1, ptr %60, align 8, !tbaa !83
  br label %61

61:                                               ; preds = %2, %.critedge29
  ret void
}